target datalayout = "e-m:e-p270:32:32-p271:32:32-p272:64:64-i64:64-i128:128-f80:128-n8:16:32:64-S128"
target triple = "x86_64-pc-linux-gnu"

%struct._archiveHandle = type { %struct.Archive, i32, ptr, ptr, i64, i64, i32, %struct.sqlparseInfo, i64, i32, ptr, i64, i64, i64, ptr, ptr, ptr, ptr, ptr, ptr, ptr, ptr, ptr, ptr, ptr, ptr, ptr, ptr, ptr, ptr, ptr, ptr, ptr, ptr, ptr, ptr, ptr, ptr, ptr, ptr, ptr, ptr, ptr, ptr, i32, i32, i8, i32, i8, i32, ptr, ptr, ptr, ptr, i32, i32, ptr, ptr, ptr, %struct.pg_compress_specification, i8, i32, i32, ptr, ptr, ptr, ptr, ptr, i32, ptr, i64, i64, i32, i32, i32, i32, ptr, ptr }
%struct.Archive = type { ptr, ptr, i32, ptr, i32, i8, i32, i32, i32, ptr, i32, i8, ptr, ptr, i8, i32, ptr }
%struct.sqlparseInfo = type { i32, i8, ptr }
%struct.pg_compress_specification = type { i32, i32, i32, i32, i8, ptr }
%struct.lclContext = type { i32, i64, ptr, ptr, i64, i64, ptr, i32, ptr }
%struct.TAR_MEMBER = type { ptr, ptr, ptr, ptr, i8, i64, i64, ptr }

@.str.22 = private unnamed_addr constant [44 x i8] c"could not read from input file: end of file\00", align 1

; Function Attrs: nounwind uwtable
define internal i64 @tarRead(ptr noundef %0, i64 noundef %1, ptr noundef %2) #0 {
  %4 = alloca i64, align 8
  %5 = alloca ptr, align 8
  %6 = alloca i64, align 8
  %7 = alloca ptr, align 8
  %8 = alloca i64, align 8
  %9 = alloca i32, align 4
  store ptr %0, ptr %5, align 8
  store i64 %1, ptr %6, align 8
  store ptr %2, ptr %7, align 8
  call void @llvm.lifetime.start.p0(i64 8, ptr %8) #12
  %10 = load ptr, ptr %7, align 8
  %11 = getelementptr inbounds nuw %struct.TAR_MEMBER, ptr %10, i32 0, i32 5
  %12 = load i64, ptr %11, align 8
  %13 = load i64, ptr %6, align 8
  %14 = add i64 %12, %13
  %15 = load ptr, ptr %7, align 8
  %16 = getelementptr inbounds nuw %struct.TAR_MEMBER, ptr %15, i32 0, i32 6
  %17 = load i64, ptr %16, align 8
  %18 = icmp ugt i64 %14, %17
  br i1 %18, label %19, label %27

19:                                               ; preds = %3
  %20 = load ptr, ptr %7, align 8
  %21 = getelementptr inbounds nuw %struct.TAR_MEMBER, ptr %20, i32 0, i32 6
  %22 = load i64, ptr %21, align 8
  %23 = load ptr, ptr %7, align 8
  %24 = getelementptr inbounds nuw %struct.TAR_MEMBER, ptr %23, i32 0, i32 5
  %25 = load i64, ptr %24, align 8
  %26 = sub i64 %22, %25
  store i64 %26, ptr %6, align 8
  br label %27

27:                                               ; preds = %19, %3
  %28 = load i64, ptr %6, align 8
  %29 = icmp ule i64 %28, 0
  br i1 %29, label %30, label %31

30:                                               ; preds = %27
  store i64 0, ptr %4, align 8
  store i32 1, ptr %9, align 4
  br label %45

31:                                               ; preds = %27
  %32 = load ptr, ptr %7, align 8
  %33 = getelementptr inbounds nuw %struct.TAR_MEMBER, ptr %32, i32 0, i32 7
  %34 = load ptr, ptr %33, align 8
  %35 = load ptr, ptr %5, align 8
  %36 = load i64, ptr %6, align 8
  %37 = load ptr, ptr %7, align 8
  %38 = call i64 @_tarReadRaw(ptr noundef %34, ptr noundef %35, i64 noundef %36, ptr noundef %37, ptr noundef null)
  store i64 %38, ptr %8, align 8
  %39 = load i64, ptr %8, align 8
  %40 = load ptr, ptr %7, align 8
  %41 = getelementptr inbounds nuw %struct.TAR_MEMBER, ptr %40, i32 0, i32 5
  %42 = load i64, ptr %41, align 8
  %43 = add i64 %42, %39
  store i64 %43, ptr %41, align 8
  %44 = load i64, ptr %8, align 8
  store i64 %44, ptr %4, align 8
  store i32 1, ptr %9, align 4
  br label %45

45:                                               ; preds = %31, %30
  call void @llvm.lifetime.end.p0(i64 8, ptr %8) #12
  %46 = load i64, ptr %4, align 8
  ret i64 %46
}

; Function Attrs: nounwind uwtable
define internal i32 @_ReadByte(ptr noundef %0) #0 {
  %2 = alloca ptr, align 8
  %3 = alloca ptr, align 8
  %4 = alloca i64, align 8
  %5 = alloca i8, align 1
  store ptr %0, ptr %2, align 8
  call void @llvm.lifetime.start.p0(i64 8, ptr %3) #12
  %6 = load ptr, ptr %2, align 8
  %7 = getelementptr inbounds nuw %struct._archiveHandle, ptr %6, i32 0, i32 63
  %8 = load ptr, ptr %7, align 8
  store ptr %8, ptr %3, align 8
  call void @llvm.lifetime.start.p0(i64 8, ptr %4) #12
  call void @llvm.lifetime.start.p0(i64 1, ptr %5) #12
  %9 = load ptr, ptr %3, align 8
  %10 = getelementptr inbounds nuw %struct.lclContext, ptr %9, i32 0, i32 6
  %11 = load ptr, ptr %10, align 8
  %12 = call i64 @tarRead(ptr noundef %5, i64 noundef 1, ptr noundef %11)
  store i64 %12, ptr %4, align 8
  %13 = load i64, ptr %4, align 8
  %14 = icmp ne i64 %13, 1
  br i1 %14, label %15, label %19

15:                                               ; preds = %1
  br label %16

16:                                               ; preds = %15
  call void (i32, i32, ptr, ...) @pg_log_generic(i32 noundef 4, i32 noundef 0, ptr noundef @.str.22)
  call void @exit_nicely(i32 noundef 1) #14
  unreachable

17:                                               ; No predecessors!
  br label %18

18:                                               ; preds = %17
  br label %19

19:                                               ; preds = %18, %1
  %20 = load ptr, ptr %3, align 8
  %21 = getelementptr inbounds nuw %struct.lclContext, ptr %20, i32 0, i32 1
  %22 = load i64, ptr %21, align 8
  %23 = add i64 %22, 1
  store i64 %23, ptr %21, align 8
  %24 = load i8, ptr %5, align 1
  %25 = zext i8 %24 to i32
  call void @llvm.lifetime.end.p0(i64 1, ptr %5) #12
  call void @llvm.lifetime.end.p0(i64 8, ptr %4) #12
  call void @llvm.lifetime.end.p0(i64 8, ptr %3) #12
  ret i32 %25
}