; Function Attrs: nounwind uwtable
define internal range(i32 0, 256) i32 @_ReadByte(ptr noundef readonly captures(none) %0) #0 {
  %2 = alloca i8, align 1
  %3 = getelementptr inbounds nuw i8, ptr %0, i64 592
  %4 = load ptr, ptr %3, align 8
  call void @llvm.lifetime.start.p0(i64 1, ptr nonnull %2) #17
  %5 = getelementptr inbounds nuw i8, ptr %4, i64 48
  %6 = load ptr, ptr %5, align 8
  %7 = getelementptr inbounds nuw i8, ptr %6, i64 40
  %8 = load i64, ptr %7, align 8
  %9 = add i64 %8, 1
  %10 = getelementptr inbounds nuw i8, ptr %6, i64 48
  %11 = load i64, ptr %10, align 8
  %12 = icmp ugt i64 %9, %11
  %13 = sub i64 %11, %8
  %spec.select.i = select i1 %12, i64 %13, i64 1
  %14 = icmp eq i64 %spec.select.i, 0
  br i1 %14, label %tarRead.exit.thread, label %tarRead.exit

tarRead.exit:                                     ; preds = %1
  %15 = getelementptr inbounds nuw i8, ptr %6, i64 56
  %16 = load ptr, ptr %15, align 8
  %17 = call fastcc i64 @_tarReadRaw(ptr noundef %16, ptr noundef nonnull %2, i64 noundef %spec.select.i, ptr noundef nonnull %6, ptr noundef null)
  %18 = load i64, ptr %7, align 8
  %19 = add i64 %18, %17
  store i64 %19, ptr %7, align 8
  %.not = icmp eq i64 %17, 1
  br i1 %.not, label %20, label %tarRead.exit.thread

tarRead.exit.thread:                              ; preds = %1, %tarRead.exit
  tail call void (i32, i32, ptr, ...) @pg_log_generic(i32 noundef 4, i32 noundef 0, ptr noundef nonnull @.str.22) #17
  tail call void @exit_nicely(i32 noundef 1) #18
  unreachable

20:                                               ; preds = %tarRead.exit
  %21 = getelementptr inbounds nuw i8, ptr %4, i64 8
  %22 = load i64, ptr %21, align 8
  %23 = add i64 %22, 1
  store i64 %23, ptr %21, align 8
  %24 = load i8, ptr %2, align 1
  %25 = zext i8 %24 to i32
  call void @llvm.lifetime.end.p0(i64 1, ptr nonnull %2) #17
  ret i32 %25
}